target datalayout = "e-m:e-p270:32:32-p271:32:32-p272:64:64-i64:64-i128:128-f80:128-n8:16:32:64-S128"
target triple = "x86_64-pc-linux-gnu"

%struct.unw_context_t = type { [21 x i64] }
%struct.unw_cursor_t = type { [33 x i64] }
%struct._Unwind_Exception = type { i64, ptr, i64, i64 }

@stderr = external global ptr, align 8
@.str.1 = private unnamed_addr constant [38 x i8] c"libunwind: _Unwind_Resume(ex_obj=%p)\0A\00", align 1
@.str.2 = private unnamed_addr constant [20 x i8] c"libunwind: %s - %s\0A\00", align 1
@__func__._Unwind_Resume = private unnamed_addr constant [15 x i8] c"_Unwind_Resume\00", align 1
@.str.3 = private unnamed_addr constant [30 x i8] c"_Unwind_Resume() can't return\00", align 1

; Function Attrs: uwtable
define dso_local void @_Unwind_Resume(ptr noundef %0) #0 {
  %2 = alloca ptr, align 8
  %3 = alloca %struct.unw_context_t, align 8
  %4 = alloca %struct.unw_cursor_t, align 8
  store ptr %0, ptr %2, align 8, !tbaa !4
  br label %5

5:                                                ; preds = %1
  %6 = call zeroext i1 @logAPIs()
  br i1 %6, label %7, label %15

7:                                                ; preds = %5
  br label %8

8:                                                ; preds = %7
  %9 = load ptr, ptr @stderr, align 8, !tbaa !9
  %10 = load ptr, ptr %2, align 8, !tbaa !4
  %11 = call i32 (ptr, ptr, ...) @fprintf(ptr noundef %9, ptr noundef @.str.1, ptr noundef %10) #5
  %12 = load ptr, ptr @stderr, align 8, !tbaa !9
  %13 = call i32 @fflush(ptr noundef %12)
  br label %14

14:                                               ; preds = %8
  br label %15

15:                                               ; preds = %14, %5
  br label %16

16:                                               ; preds = %15
  call void @llvm.lifetime.start.p0(i64 168, ptr %3) #5
  call void @llvm.lifetime.start.p0(i64 264, ptr %4) #5
  %17 = call i32 @__unw_getcontext(ptr noundef %3)
  %18 = load ptr, ptr %2, align 8, !tbaa !4
  %19 = getelementptr inbounds nuw %struct._Unwind_Exception, ptr %18, i32 0, i32 2
  %20 = load i64, ptr %19, align 16, !tbaa !11
  %21 = icmp ne i64 %20, 0
  br i1 %21, label %22, label %33

22:                                               ; preds = %16
  %23 = load ptr, ptr %2, align 8, !tbaa !4
  %24 = load ptr, ptr %2, align 8, !tbaa !4
  %25 = getelementptr inbounds nuw %struct._Unwind_Exception, ptr %24, i32 0, i32 2
  %26 = load i64, ptr %25, align 16, !tbaa !11
  %27 = inttoptr i64 %26 to ptr
  %28 = load ptr, ptr %2, align 8, !tbaa !4
  %29 = getelementptr inbounds nuw %struct._Unwind_Exception, ptr %28, i32 0, i32 3
  %30 = load i64, ptr %29, align 8, !tbaa !14
  %31 = inttoptr i64 %30 to ptr
  %32 = call i32 @unwind_phase2_forced(ptr noundef %3, ptr noundef %4, ptr noundef %23, ptr noundef %27, ptr noundef %31)
  br label %36

33:                                               ; preds = %16
  %34 = load ptr, ptr %2, align 8, !tbaa !4
  %35 = call i32 @unwind_phase2(ptr noundef %3, ptr noundef %4, ptr noundef %34)
  br label %36

36:                                               ; preds = %33, %22
  br label %37

37:                                               ; preds = %36
  %38 = load ptr, ptr @stderr, align 8, !tbaa !9
  %39 = call i32 (ptr, ptr, ...) @fprintf(ptr noundef %38, ptr noundef @.str.2, ptr noundef @__func__._Unwind_Resume, ptr noundef @.str.3) #5
  %40 = load ptr, ptr @stderr, align 8, !tbaa !9
  %41 = call i32 @fflush(ptr noundef %40)
  call void @abort() #6
  unreachable

42:                                               ; No predecessors!
  br label %43

43:                                               ; preds = %42
  call void @llvm.lifetime.end.p0(i64 264, ptr %4) #5
  call void @llvm.lifetime.end.p0(i64 168, ptr %3) #5
  ret void
}