; Function Attrs: cold noreturn uwtable
define dso_local void @_Unwind_Resume(ptr noundef %0) local_unnamed_addr #4 {
  %2 = alloca %struct.unw_context_t, align 8
  %3 = alloca %struct.unw_cursor_t, align 8
  %4 = tail call zeroext i1 @logAPIs()
  br i1 %4, label %5, label %10

5:                                                ; preds = %1
  %6 = load ptr, ptr @stderr, align 8, !tbaa !4
  %7 = tail call i32 (ptr, ptr, ...) @fprintf(ptr noundef %6, ptr noundef nonnull @.str.1, ptr noundef %0) #7
  %8 = load ptr, ptr @stderr, align 8, !tbaa !4
  %9 = tail call i32 @fflush(ptr noundef %8)
  br label %10

10:                                               ; preds = %1, %5
  call void @llvm.lifetime.start.p0(i64 168, ptr nonnull %2) #8
  call void @llvm.lifetime.start.p0(i64 264, ptr nonnull %3) #8
  %11 = call i32 @__unw_getcontext(ptr noundef nonnull %2)
  %12 = getelementptr inbounds nuw i8, ptr %0, i64 16
  %13 = load i64, ptr %12, align 16, !tbaa !20
  %.not = icmp eq i64 %13, 0
  br i1 %.not, label %19, label %14

14:                                               ; preds = %10
  %15 = inttoptr i64 %13 to ptr
  %16 = getelementptr inbounds nuw i8, ptr %0, i64 24
  %17 = load i64, ptr %16, align 8, !tbaa !19
  %18 = inttoptr i64 %17 to ptr
  call fastcc void @unwind_phase2_forced(ptr noundef %2, ptr noundef %3, ptr noundef nonnull %0, ptr noundef nonnull %15, ptr noundef %18)
  br label %21

19:                                               ; preds = %10
  %20 = call fastcc i32 @unwind_phase2(ptr noundef %2, ptr noundef %3, ptr noundef nonnull %0)
  br label %21

21:                                               ; preds = %14, %19
  %22 = load ptr, ptr @stderr, align 8, !tbaa !4
  %23 = call i32 (ptr, ptr, ...) @fprintf(ptr noundef %22, ptr noundef nonnull @.str.2, ptr noundef nonnull @__func__._Unwind_Resume, ptr noundef nonnull @.str.3) #7
  %24 = load ptr, ptr @stderr, align 8, !tbaa !4
  %25 = call i32 @fflush(ptr noundef %24)
  call void @abort() #9
  unreachable
}